target datalayout = "e-m:e-p270:32:32-p271:32:32-p272:64:64-i64:64-i128:128-f80:128-n8:16:32:64-S128"
target triple = "x86_64-pc-linux-gnu"

%struct.H5FL_reg_head_t = type { i8, i32, i32, ptr, i64, ptr }
%struct.H5B2_leaf_t = type { %struct.H5C_cache_entry_t, ptr, ptr, i16, ptr, ptr, i64 }
%struct.H5C_cache_entry_t = type { ptr, i64, i64, ptr, i8, ptr, i8, i8, i8, i8, i32, i8, i8, i8, i8, i8, i32, ptr, i32, i32, i32, i32, i32, i8, i8, ptr, ptr, ptr, ptr, ptr, ptr, i8, i32, i8, i64, ptr, i64, i64, i32, i8, i32, i32, i8, ptr, ptr, ptr }
%struct.H5B2_hdr_t = type { %struct.H5C_cache_entry_t, %struct.H5B2_node_ptr_t, i8, i8, i32, i32, i16, i8, ptr, i64, i64, i64, i64, i8, i8, i8, ptr, ptr, ptr, ptr, ptr, ptr, ptr, i8, ptr, ptr, i64, ptr, ptr }
%struct.H5B2_node_ptr_t = type { i64, i16, i64 }
%struct.H5B2_node_info_t = type { i32, i32, i32, i64, i8, ptr, ptr }

@H5_H5B2_leaf_t_reg_free_list = global %struct.H5FL_reg_head_t { i8 0, i32 0, i32 0, ptr @.str, i64 296, ptr null }, align 8
@.str.1 = private unnamed_addr constant [102 x i8] c"generated/home/dtcxzyw/WorkSpace/Projects/compilers/llvm-opt-benchmark/bench/hdf5/hdf5/src/H5B2leaf.c\00", align 1
@H5E_BTREE_g = external global i64, align 8
@__func__.H5B2__leaf_free = private unnamed_addr constant [16 x i8] c"H5B2__leaf_free\00", align 1
@H5E_CANTDEC_g = external global i64, align 8
@.str.31 = private unnamed_addr constant [44 x i8] c"can't decrement ref. count on B-tree header\00", align 1

; Function Attrs: nounwind uwtable
define i32 @H5B2__leaf_free(ptr noundef %0) #0 {
  %2 = alloca ptr, align 8
  %3 = alloca i32, align 4
  %4 = alloca i8, align 1
  store ptr %0, ptr %2, align 8
  store i32 0, ptr %3, align 4
  store i8 0, ptr %4, align 1
  %5 = load ptr, ptr %2, align 8
  %6 = getelementptr inbounds %struct.H5B2_leaf_t, ptr %5, i32 0, i32 2
  %7 = load ptr, ptr %6, align 8
  %8 = icmp ne ptr %7, null
  br i1 %8, label %9, label %24

9:                                                ; preds = %1
  %10 = load ptr, ptr %2, align 8
  %11 = getelementptr inbounds %struct.H5B2_leaf_t, ptr %10, i32 0, i32 1
  %12 = load ptr, ptr %11, align 8
  %13 = getelementptr inbounds %struct.H5B2_hdr_t, ptr %12, i32 0, i32 20
  %14 = load ptr, ptr %13, align 8
  %15 = getelementptr inbounds %struct.H5B2_node_info_t, ptr %14, i64 0
  %16 = getelementptr inbounds %struct.H5B2_node_info_t, ptr %15, i32 0, i32 5
  %17 = load ptr, ptr %16, align 8
  %18 = load ptr, ptr %2, align 8
  %19 = getelementptr inbounds %struct.H5B2_leaf_t, ptr %18, i32 0, i32 2
  %20 = load ptr, ptr %19, align 8
  %21 = call ptr @H5FL_fac_free(ptr noundef %17, ptr noundef %20)
  %22 = load ptr, ptr %2, align 8
  %23 = getelementptr inbounds %struct.H5B2_leaf_t, ptr %22, i32 0, i32 2
  store ptr %21, ptr %23, align 8
  br label %24

24:                                               ; preds = %9, %1
  %25 = load ptr, ptr %2, align 8
  %26 = getelementptr inbounds %struct.H5B2_leaf_t, ptr %25, i32 0, i32 1
  %27 = load ptr, ptr %26, align 8
  %28 = call i32 @H5B2__hdr_decr(ptr noundef %27)
  %29 = icmp slt i32 %28, 0
  br i1 %29, label %30, label %45

30:                                               ; preds = %24
  br label %31

31:                                               ; preds = %30
  br label %32

32:                                               ; preds = %31
  br label %33

33:                                               ; preds = %32
  %34 = load i64, ptr @H5E_BTREE_g, align 8
  %35 = load i64, ptr @H5E_CANTDEC_g, align 8
  %36 = call i32 (ptr, ptr, i32, i64, i64, ptr, ...) @H5E_printf_stack(ptr noundef @.str.1, ptr noundef @__func__.H5B2__leaf_free, i32 noundef 957, i64 noundef %34, i64 noundef %35, ptr noundef @.str.31)
  br label %37

37:                                               ; preds = %33
  store i8 1, ptr %4, align 1
  %38 = load i8, ptr %4, align 1
  %39 = trunc i8 %38 to i1
  %40 = zext i1 %39 to i8
  store i8 %40, ptr %4, align 1
  br label %41

41:                                               ; preds = %37
  br label %42

42:                                               ; preds = %41
  store i32 -1, ptr %3, align 4
  br label %48

43:                                               ; No predecessors!
  br label %44

44:                                               ; preds = %43
  br label %45

45:                                               ; preds = %44, %24
  %46 = load ptr, ptr %2, align 8
  %47 = call ptr @H5FL_reg_free(ptr noundef @H5_H5B2_leaf_t_reg_free_list, ptr noundef %46)
  store ptr %47, ptr %2, align 8
  br label %48

48:                                               ; preds = %45, %42
  %49 = load i32, ptr %3, align 4
  ret i32 %49
}