; Function Attrs: nounwind uwtable
define range(i32 -1, 1) i32 @H5B2__leaf_free(ptr noundef %0) local_unnamed_addr #0 {
  %2 = getelementptr inbounds nuw i8, ptr %0, i64 256
  %3 = load ptr, ptr %2, align 8
  %.not = icmp eq ptr %3, null
  br i1 %.not, label %12, label %4

4:                                                ; preds = %1
  %5 = getelementptr inbounds nuw i8, ptr %0, i64 248
  %6 = load ptr, ptr %5, align 8
  %7 = getelementptr inbounds nuw i8, ptr %6, i64 368
  %8 = load ptr, ptr %7, align 8
  %9 = getelementptr inbounds nuw i8, ptr %8, i64 32
  %10 = load ptr, ptr %9, align 8
  %11 = tail call ptr @H5FL_fac_free(ptr noundef %10, ptr noundef nonnull %3) #5
  store ptr %11, ptr %2, align 8
  br label %12

12:                                               ; preds = %4, %1
  %13 = getelementptr inbounds nuw i8, ptr %0, i64 248
  %14 = load ptr, ptr %13, align 8
  %15 = tail call i32 @H5B2__hdr_decr(ptr noundef %14) #5
  %16 = icmp slt i32 %15, 0
  br i1 %16, label %17, label %21

17:                                               ; preds = %12
  %18 = load i64, ptr @H5E_BTREE_g, align 8
  %19 = load i64, ptr @H5E_CANTDEC_g, align 8
  %20 = tail call i32 (ptr, ptr, i32, i64, i64, ptr, ...) @H5E_printf_stack(ptr noundef nonnull @.str.1, ptr noundef nonnull @__func__.H5B2__leaf_free, i32 noundef 957, i64 noundef %18, i64 noundef %19, ptr noundef nonnull @.str.31) #5
  br label %23

21:                                               ; preds = %12
  %22 = tail call ptr @H5FL_reg_free(ptr noundef nonnull @H5_H5B2_leaf_t_reg_free_list, ptr noundef nonnull %0) #5
  br label %23

23:                                               ; preds = %21, %17
  %.0 = phi i32 [ -1, %17 ], [ 0, %21 ]
  ret i32 %.0
}